(dp1
S'start'
p2
cdatetime
datetime
p3
(S'\x07\xdf\x08\x08\x0c\x00\x00\x00\x00\x00'
cpytz
_UTC
p4
(tRp5
tRp6
sS'secoora_models'
p7
(lp8
S'SABGOM'
p9
aS'USEAST'
p10
aS'USF_ROMS'
p11
aS'USF_SWAN'
p12
aS'USF_FVCOM'
p13
asS'run_name'
p14
S'2015-08-14'
p15
sS'units'
p16
ccopy_reg
_reconstructor
p17
(ciris.unit
Unit
p18
c__builtin__
object
p19
NtRp20
(dp21
S'calendar'
p22
NsS'unit_text'
p23
S'g/kg'
p24
sbsS'stop'
p25
g3
(S'\x07\xdf\x08\x0e\x0c\x00\x00\x00\x00\x00'
g5
tRp26
sS'name_list'
p27
(lp28
S'sea_water_salinity'
p29
aS'sea_surface_salinity'
p30
aS'sea_water_absolute_salinity'
p31
aS'sea_water_practical_salinity'
p32
asS'bbox'
p33
(lp34
F-87.400000000000006
aF24.25
aF-74.700000000000003
aF36.700000000000003
as.